ccopy_reg
_reconstructor
p1
(cargparse
Namespace
p2
c__builtin__
object
p3
NtRp4
(dp5
S'num_epochs'
p6
I50
sS'grad_clip'
p7
F5
sS'rnn_size'
p8
I256
sS'data_dir'
p9
S'data/'
p10
sS'vocab_size'
p11
I29664
sS'learning_rate'
p12
F0.002
sS'save_dir'
p13
S'./saved/friedrich_kittler-gramophone_film_typewriter'
p14
sS'batch_size'
p15
I50
sS'decay_rate'
p16
F0.96999999999999997
sS'init_from'
p17
NsS'seq_length'
p18
I25
sS'num_layers'
p19
I2
sS'train_filename'
p20
S'/mnt/drive1/data/eco/pdf_to_text_postprocessed/friedrich_kittler-gramophone_film_typewriter.txt'
p21
sS'model'
p22
S'lstm'
p23
sS'save_every'
p24
I100
sb.